target datalayout = "e-m:e-p270:32:32-p271:32:32-p272:64:64-i64:64-i128:128-f80:128-n8:16:32:64-S128"
target triple = "x86_64-pc-linux-gnu"

%struct.rb_ractor_struct = type { %struct.rb_ractor_pub, %struct.rb_ractor_sync, i64, %union.pthread_cond_t, %struct.anon.17, i64, i64, i64, i32, %struct.ccan_list_node, ptr, ptr, i64, i64, i64, i64, i64, i64, ptr }
%struct.rb_ractor_pub = type { i64, i32, %struct.rb_hook_list_struct }
%struct.rb_hook_list_struct = type { ptr, i32, i32, i8, i8 }
%struct.rb_ractor_sync = type { %union.pthread_mutex_t, i8, i8, %struct.rb_ractor_queue, %struct.rb_ractor_queue, %struct.rb_ractor_basket, %struct.ractor_wait }
%union.pthread_mutex_t = type { %struct.__pthread_mutex_s }
%struct.__pthread_mutex_s = type { i32, i32, i32, i32, i32, i16, i16, %struct.__pthread_internal_list }
%struct.__pthread_internal_list = type { ptr, ptr }
%struct.rb_ractor_queue = type { ptr, i32, i32, i32, i32, i32 }
%struct.rb_ractor_basket = type { %union.anon.13, i64, %union.anon.14 }
%union.anon.13 = type { i32 }
%union.anon.14 = type { %struct.anon.15 }
%struct.anon.15 = type { i64, i8 }
%struct.ractor_wait = type { i32, i32, ptr }
%union.pthread_cond_t = type { %struct.__pthread_cond_s }
%struct.__pthread_cond_s = type { %union.__atomic_wide_counter, %union.__atomic_wide_counter, [2 x i32], [2 x i32], i32, i32, [2 x i32] }
%union.__atomic_wide_counter = type { i64 }
%struct.anon.17 = type { %struct.ccan_list_head, i32, i32, i32, %struct.rb_thread_sched, ptr, ptr }
%struct.ccan_list_head = type { %struct.ccan_list_node }
%struct.rb_thread_sched = type { %union.pthread_mutex_t, ptr, i8, i8, i8, %struct.ccan_list_head, i32, %struct.ccan_list_node }
%struct.ccan_list_node = type { ptr, ptr }

@.str = private unnamed_addr constant [12 x i8] c"../ractor.c\00", align 1

; Function Attrs: nounwind sspstrong uwtable
define internal zeroext i1 @ractor_sleeping_by(ptr noundef %0, i32 noundef %1) #0 {
  %3 = alloca ptr, align 8
  %4 = alloca i32, align 4
  store ptr %0, ptr %3, align 8, !tbaa !7
  store i32 %1, ptr %4, align 4, !tbaa !14
  %5 = load ptr, ptr %3, align 8, !tbaa !7
  %6 = getelementptr inbounds nuw %struct.rb_ractor_struct, ptr %5, i32 0, i32 1
  %7 = getelementptr inbounds nuw %struct.rb_ractor_sync, ptr %6, i32 0, i32 6
  %8 = getelementptr inbounds nuw %struct.ractor_wait, ptr %7, i32 0, i32 0
  %9 = load i32, ptr %8, align 8, !tbaa !284
  %10 = load i32, ptr %4, align 4, !tbaa !14
  %11 = and i32 %9, %10
  %12 = icmp ne i32 %11, 0
  br i1 %12, label %13, label %20

13:                                               ; preds = %2
  %14 = load ptr, ptr %3, align 8, !tbaa !7
  %15 = getelementptr inbounds nuw %struct.rb_ractor_struct, ptr %14, i32 0, i32 1
  %16 = getelementptr inbounds nuw %struct.rb_ractor_sync, ptr %15, i32 0, i32 6
  %17 = getelementptr inbounds nuw %struct.ractor_wait, ptr %16, i32 0, i32 1
  %18 = load i32, ptr %17, align 4, !tbaa !235
  %19 = icmp eq i32 %18, 0
  br label %20

20:                                               ; preds = %13, %2
  %21 = phi i1 [ false, %2 ], [ %19, %13 ]
  ret i1 %21
}

; Function Attrs: nounwind sspstrong uwtable
define internal zeroext i1 @ractor_take_has_will(ptr noundef %0) #0 {
  %2 = alloca ptr, align 8
  store ptr %0, ptr %2, align 8, !tbaa !7
  %3 = load ptr, ptr %2, align 8, !tbaa !7
  call void @ASSERT_ractor_locking(ptr noundef %3)
  %4 = load ptr, ptr %2, align 8, !tbaa !7
  %5 = getelementptr inbounds nuw %struct.rb_ractor_struct, ptr %4, i32 0, i32 1
  %6 = getelementptr inbounds nuw %struct.rb_ractor_sync, ptr %5, i32 0, i32 5
  %7 = call zeroext i1 @basket_type_p(ptr noundef %6, i32 noundef 4)
  ret i1 %7
}

; Function Attrs: nounwind sspstrong uwtable
define internal void @ASSERT_ractor_locking(ptr noundef %0) #0 {
  %2 = alloca ptr, align 8
  store ptr %0, ptr %2, align 8, !tbaa !7
  ret void
}

; Function Attrs: nounwind sspstrong uwtable
define internal void @ASSERT_ractor_unlocking(ptr noundef %0) #0 {
  %2 = alloca ptr, align 8
  store ptr %0, ptr %2, align 8, !tbaa !7
  ret void
}

; Function Attrs: nounwind sspstrong uwtable
define internal void @ractor_unlock(ptr noundef %0, ptr noundef %1, i32 noundef %2) #0 {
  %4 = alloca ptr, align 8
  %5 = alloca ptr, align 8
  %6 = alloca i32, align 4
  store ptr %0, ptr %4, align 8, !tbaa !7
  store ptr %1, ptr %5, align 8, !tbaa !12
  store i32 %2, ptr %6, align 4, !tbaa !14
  %7 = load ptr, ptr %4, align 8, !tbaa !7
  call void @ASSERT_ractor_locking(ptr noundef %7)
  %8 = load ptr, ptr %4, align 8, !tbaa !7
  %9 = getelementptr inbounds nuw %struct.rb_ractor_struct, ptr %8, i32 0, i32 1
  %10 = getelementptr inbounds nuw %struct.rb_ractor_sync, ptr %9, i32 0, i32 0
  call void @rb_native_mutex_unlock(ptr noundef %10)
  ret void
}

; Function Attrs: nounwind sspstrong uwtable
define internal zeroext i1 @ractor_wakeup(ptr noundef %0, i32 noundef %1, i32 noundef %2) #0 {
  %4 = alloca i1, align 1
  %5 = alloca ptr, align 8
  %6 = alloca i32, align 4
  %7 = alloca i32, align 4
  store ptr %0, ptr %5, align 8, !tbaa !7
  store i32 %1, ptr %6, align 4, !tbaa !14
  store i32 %2, ptr %7, align 4, !tbaa !14
  %8 = load ptr, ptr %5, align 8, !tbaa !7
  call void @ASSERT_ractor_locking(ptr noundef %8)
  %9 = load ptr, ptr %5, align 8, !tbaa !7
  %10 = load i32, ptr %6, align 4, !tbaa !14
  %11 = call zeroext i1 @ractor_sleeping_by(ptr noundef %9, i32 noundef %10)
  br i1 %11, label %12, label %19

12:                                               ; preds = %3
  %13 = load i32, ptr %7, align 4, !tbaa !14
  %14 = load ptr, ptr %5, align 8, !tbaa !7
  %15 = getelementptr inbounds nuw %struct.rb_ractor_struct, ptr %14, i32 0, i32 1
  %16 = getelementptr inbounds nuw %struct.rb_ractor_sync, ptr %15, i32 0, i32 6
  %17 = getelementptr inbounds nuw %struct.ractor_wait, ptr %16, i32 0, i32 1
  store i32 %13, ptr %17, align 4, !tbaa !235
  %18 = load ptr, ptr %5, align 8, !tbaa !7
  call void @rb_ractor_sched_wakeup(ptr noundef %18)
  store i1 true, ptr %4, align 1
  br label %20

19:                                               ; preds = %3
  store i1 false, ptr %4, align 1
  br label %20

20:                                               ; preds = %19, %12
  %21 = load i1, ptr %4, align 1
  ret i1 %21
}

; Function Attrs: nounwind sspstrong uwtable
define internal zeroext i1 @ractor_take_will(ptr noundef %0, ptr noundef %1) #0 {
  %3 = alloca i1, align 1
  %4 = alloca ptr, align 8
  %5 = alloca ptr, align 8
  store ptr %0, ptr %4, align 8, !tbaa !7
  store ptr %1, ptr %5, align 8, !tbaa !105
  %6 = load ptr, ptr %4, align 8, !tbaa !7
  call void @ASSERT_ractor_locking(ptr noundef %6)
  %7 = load ptr, ptr %4, align 8, !tbaa !7
  %8 = call zeroext i1 @ractor_take_has_will(ptr noundef %7)
  br i1 %8, label %9, label %18

9:                                                ; preds = %2
  %10 = load ptr, ptr %5, align 8, !tbaa !105
  %11 = load ptr, ptr %4, align 8, !tbaa !7
  %12 = getelementptr inbounds nuw %struct.rb_ractor_struct, ptr %11, i32 0, i32 1
  %13 = getelementptr inbounds nuw %struct.rb_ractor_sync, ptr %12, i32 0, i32 5
  call void @llvm.memcpy.p0.p0.i64(ptr align 8 %10, ptr align 8 %13, i64 32, i1 false), !tbaa.struct !145
  %14 = load ptr, ptr %4, align 8, !tbaa !7
  %15 = getelementptr inbounds nuw %struct.rb_ractor_struct, ptr %14, i32 0, i32 1
  %16 = getelementptr inbounds nuw %struct.rb_ractor_sync, ptr %15, i32 0, i32 5
  %17 = getelementptr inbounds nuw %struct.rb_ractor_basket, ptr %16, i32 0, i32 0
  store i32 0, ptr %17, align 8, !tbaa !104
  store i1 true, ptr %3, align 1
  br label %19

18:                                               ; preds = %2
  store i1 false, ptr %3, align 1
  br label %19

19:                                               ; preds = %18, %9
  %20 = load i1, ptr %3, align 1
  ret i1 %20
}

; Function Attrs: inlinehint nounwind sspstrong memory(argmem: readwrite, inaccessiblemem: readwrite) uwtable
define internal i32 @rbimpl_atomic_cas(ptr noundef nonnull %0, i32 noundef %1, i32 noundef %2) #6 {
  %4 = alloca ptr, align 8
  %5 = alloca i32, align 4
  %6 = alloca i32, align 4
  %7 = alloca i32, align 4
  %8 = alloca i8, align 1
  store ptr %0, ptr %4, align 8, !tbaa !110
  store i32 %1, ptr %5, align 4, !tbaa !14
  store i32 %2, ptr %6, align 4, !tbaa !14
  %9 = load ptr, ptr %4, align 8, !tbaa !110
  %10 = load i32, ptr %6, align 4, !tbaa !14
  store i32 %10, ptr %7, align 4, !tbaa !14
  %11 = load i32, ptr %5, align 4
  %12 = load i32, ptr %7, align 4
  %13 = cmpxchg volatile ptr %9, i32 %11, i32 %12 seq_cst seq_cst, align 4
  %14 = extractvalue { i32, i1 } %13, 0
  %15 = extractvalue { i32, i1 } %13, 1
  br i1 %15, label %17, label %16

16:                                               ; preds = %3
  store i32 %14, ptr %5, align 4
  br label %17

17:                                               ; preds = %16, %3
  %18 = zext i1 %15 to i8
  store i8 %18, ptr %8, align 1, !tbaa !89
  %19 = load i32, ptr %5, align 4, !tbaa !14
  ret i32 %19
}

; Function Attrs: inlinehint nounwind sspstrong uwtable
define internal zeroext i1 @basket_type_p(ptr noundef %0, i32 noundef %1) #4 {
  %3 = alloca ptr, align 8
  %4 = alloca i32, align 4
  store ptr %0, ptr %3, align 8, !tbaa !105
  store i32 %1, ptr %4, align 4, !tbaa !14
  %5 = load ptr, ptr %3, align 8, !tbaa !105
  %6 = getelementptr inbounds nuw %struct.rb_ractor_basket, ptr %5, i32 0, i32 0
  %7 = load i32, ptr %6, align 8, !tbaa !104
  %8 = load i32, ptr %4, align 4, !tbaa !14
  %9 = icmp eq i32 %7, %8
  ret i1 %9
}

; Function Attrs: nounwind sspstrong uwtable
define internal void @ractor_lock(ptr noundef %0, ptr noundef %1, i32 noundef %2) #0 {
  %4 = alloca ptr, align 8
  %5 = alloca ptr, align 8
  %6 = alloca i32, align 4
  store ptr %0, ptr %4, align 8, !tbaa !7
  store ptr %1, ptr %5, align 8, !tbaa !12
  store i32 %2, ptr %6, align 4, !tbaa !14
  %7 = load ptr, ptr %4, align 8, !tbaa !7
  call void @ASSERT_ractor_unlocking(ptr noundef %7)
  %8 = load ptr, ptr %4, align 8, !tbaa !7
  %9 = getelementptr inbounds nuw %struct.rb_ractor_struct, ptr %8, i32 0, i32 1
  %10 = getelementptr inbounds nuw %struct.rb_ractor_sync, ptr %9, i32 0, i32 0
  call void @rb_native_mutex_lock(ptr noundef %10)
  ret void
}

; Function Attrs: inlinehint nounwind sspstrong uwtable
define internal zeroext i1 @basket_none_p(ptr noundef %0) #4 {
  %2 = alloca ptr, align 8
  store ptr %0, ptr %2, align 8, !tbaa !105
  %3 = load ptr, ptr %2, align 8, !tbaa !105
  %4 = call zeroext i1 @basket_type_p(ptr noundef %3, i32 noundef 0)
  ret i1 %4
}

; Function Attrs: nounwind sspstrong uwtable
define internal i32 @ractor_selector_wait_i(i64 noundef %0, i64 noundef %1, i64 noundef %2) #0 {
  %4 = alloca i32, align 4
  %5 = alloca i64, align 8
  %6 = alloca i64, align 8
  %7 = alloca i64, align 8
  %8 = alloca ptr, align 8
  %9 = alloca ptr, align 8
  %10 = alloca i32, align 4
  %11 = alloca i32, align 4
  store i64 %0, ptr %5, align 8, !tbaa !16
  store i64 %1, ptr %6, align 8, !tbaa !16
  store i64 %2, ptr %7, align 8, !tbaa !16
  call void @llvm.lifetime.start.p0(i64 8, ptr %8) #16
  %12 = load i64, ptr %5, align 8, !tbaa !16
  %13 = inttoptr i64 %12 to ptr
  store ptr %13, ptr %8, align 8, !tbaa !7
  call void @llvm.lifetime.start.p0(i64 8, ptr %9) #16
  %14 = load i64, ptr %7, align 8, !tbaa !16
  %15 = inttoptr i64 %14 to ptr
  store ptr %15, ptr %9, align 8, !tbaa !105
  call void @llvm.lifetime.start.p0(i64 4, ptr %10) #16
  %16 = load ptr, ptr %9, align 8, !tbaa !105
  %17 = call zeroext i1 @basket_none_p(ptr noundef %16)
  br i1 %17, label %19, label %18

18:                                               ; preds = %3
  store i32 1, ptr %4, align 4
  store i32 1, ptr %11, align 4
  br label %63

19:                                               ; preds = %3
  %20 = load ptr, ptr %8, align 8, !tbaa !7
  call void @ractor_lock(ptr noundef %20, ptr noundef @.str, i32 noundef 1621)
  %21 = load ptr, ptr %8, align 8, !tbaa !7
  %22 = getelementptr inbounds nuw %struct.rb_ractor_struct, ptr %21, i32 0, i32 1
  %23 = getelementptr inbounds nuw %struct.rb_ractor_sync, ptr %22, i32 0, i32 5
  %24 = call zeroext i1 @basket_type_p(ptr noundef %23, i32 noundef 4)
  br i1 %24, label %25, label %36

25:                                               ; preds = %19
  %26 = load ptr, ptr %9, align 8, !tbaa !105
  %27 = getelementptr inbounds nuw %struct.rb_ractor_basket, ptr %26, i32 0, i32 0
  %28 = call i32 @rbimpl_atomic_cas(ptr noundef %27, i32 noundef 0, i32 noundef 4) #28
  %29 = icmp eq i32 %28, 0
  br i1 %29, label %30, label %34

30:                                               ; preds = %25
  %31 = load ptr, ptr %8, align 8, !tbaa !7
  %32 = load ptr, ptr %9, align 8, !tbaa !105
  %33 = call zeroext i1 @ractor_take_will(ptr noundef %31, ptr noundef %32)
  store i32 1, ptr %10, align 4, !tbaa !14
  br label %35

34:                                               ; preds = %25
  store i32 0, ptr %10, align 4, !tbaa !14
  br label %35

35:                                               ; preds = %34, %30
  br label %60

36:                                               ; preds = %19
  %37 = load ptr, ptr %8, align 8, !tbaa !7
  %38 = getelementptr inbounds nuw %struct.rb_ractor_struct, ptr %37, i32 0, i32 1
  %39 = getelementptr inbounds nuw %struct.rb_ractor_sync, ptr %38, i32 0, i32 2
  %40 = load i8, ptr %39, align 1, !tbaa !90, !range !91, !noundef !92
  %41 = trunc i8 %40 to i1
  br i1 %41, label %42, label %56

42:                                               ; preds = %36
  %43 = load ptr, ptr %9, align 8, !tbaa !105
  %44 = getelementptr inbounds nuw %struct.rb_ractor_basket, ptr %43, i32 0, i32 0
  %45 = call i32 @rbimpl_atomic_cas(ptr noundef %44, i32 noundef 0, i32 noundef 5) #28
  %46 = icmp eq i32 %45, 0
  br i1 %46, label %47, label %54

47:                                               ; preds = %42
  %48 = load ptr, ptr %8, align 8, !tbaa !7
  %49 = getelementptr inbounds nuw %struct.rb_ractor_struct, ptr %48, i32 0, i32 0
  %50 = getelementptr inbounds nuw %struct.rb_ractor_pub, ptr %49, i32 0, i32 0
  %51 = load i64, ptr %50, align 8, !tbaa !42
  %52 = load ptr, ptr %9, align 8, !tbaa !105
  %53 = getelementptr inbounds nuw %struct.rb_ractor_basket, ptr %52, i32 0, i32 1
  store i64 %51, ptr %53, align 8, !tbaa !103
  store i32 1, ptr %10, align 4, !tbaa !14
  br label %55

54:                                               ; preds = %42
  store i32 0, ptr %10, align 4, !tbaa !14
  br label %55

55:                                               ; preds = %54, %47
  br label %59

56:                                               ; preds = %36
  %57 = load ptr, ptr %8, align 8, !tbaa !7
  %58 = call zeroext i1 @ractor_wakeup(ptr noundef %57, i32 noundef 4, i32 noundef 3)
  store i32 0, ptr %10, align 4, !tbaa !14
  br label %59

59:                                               ; preds = %56, %55
  br label %60

60:                                               ; preds = %59, %35
  %61 = load ptr, ptr %8, align 8, !tbaa !7
  call void @ractor_unlock(ptr noundef %61, ptr noundef @.str, i32 noundef 1653)
  %62 = load i32, ptr %10, align 4, !tbaa !14
  store i32 %62, ptr %4, align 4
  store i32 1, ptr %11, align 4
  br label %63

63:                                               ; preds = %60, %18
  call void @llvm.lifetime.end.p0(i64 4, ptr %10) #16
  call void @llvm.lifetime.end.p0(i64 8, ptr %9) #16
  call void @llvm.lifetime.end.p0(i64 8, ptr %8) #16
  %64 = load i32, ptr %4, align 4
  ret i32 %64
}