; Function Attrs: nounwind sspstrong uwtable
define internal range(i32 0, 2) i32 @ractor_selector_wait_i(i64 noundef %0, i64 %1, i64 noundef %2) #0 {
  %4 = inttoptr i64 %0 to ptr
  %5 = inttoptr i64 %2 to ptr
  %.val16 = load i32, ptr %5, align 8, !tbaa !100
  %6 = icmp eq i32 %.val16, 0
  br i1 %6, label %7, label %35

7:                                                ; preds = %3
  %8 = getelementptr inbounds nuw i8, ptr %4, i64 40
  tail call void @rb_native_mutex_lock(ptr noundef nonnull %8) #19
  %9 = getelementptr inbounds nuw i8, ptr %4, i64 152
  %.val = load i32, ptr %9, align 8, !tbaa !100
  %10 = icmp eq i32 %.val, 4
  br i1 %10, label %11, label %17

11:                                               ; preds = %7
  %12 = cmpxchg volatile ptr %5, i32 0, i32 4 seq_cst seq_cst, align 4
  %13 = extractvalue { i32, i1 } %12, 1
  br i1 %13, label %14, label %ractor_take_will.exit

14:                                               ; preds = %11
  %.val.i = load i32, ptr %9, align 8, !tbaa !100
  %15 = icmp eq i32 %.val.i, 4
  br i1 %15, label %16, label %ractor_take_will.exit

16:                                               ; preds = %14
  tail call void @llvm.memcpy.p0.p0.i64(ptr noundef nonnull align 8 dereferenceable(32) %5, ptr noundef nonnull align 8 dereferenceable(32) %9, i64 32, i1 false), !tbaa.struct !120
  store i32 0, ptr %9, align 8, !tbaa !100
  br label %ractor_take_will.exit

17:                                               ; preds = %7
  %18 = getelementptr inbounds nuw i8, ptr %4, i64 81
  %19 = load i8, ptr %18, align 1, !tbaa !97, !range !98, !noundef !99
  %20 = trunc nuw i8 %19 to i1
  br i1 %20, label %21, label %27

21:                                               ; preds = %17
  %22 = cmpxchg volatile ptr %5, i32 0, i32 5 seq_cst seq_cst, align 4
  %23 = extractvalue { i32, i1 } %22, 1
  br i1 %23, label %24, label %ractor_take_will.exit

24:                                               ; preds = %21
  %25 = load i64, ptr %4, align 8, !tbaa !37
  %26 = getelementptr inbounds nuw i8, ptr %5, i64 8
  store i64 %25, ptr %26, align 8, !tbaa !102
  br label %ractor_take_will.exit

27:                                               ; preds = %17
  %28 = getelementptr inbounds nuw i8, ptr %4, i64 184
  %29 = load i32, ptr %28, align 8, !tbaa !105
  %30 = and i32 %29, 4
  %.not.i.i = icmp eq i32 %30, 0
  br i1 %.not.i.i, label %ractor_take_will.exit, label %ractor_sleeping_by.exit.i

ractor_sleeping_by.exit.i:                        ; preds = %27
  %31 = getelementptr inbounds nuw i8, ptr %4, i64 188
  %32 = load i32, ptr %31, align 4, !tbaa !106
  %33 = icmp eq i32 %32, 0
  br i1 %33, label %34, label %ractor_take_will.exit

34:                                               ; preds = %ractor_sleeping_by.exit.i
  store i32 3, ptr %31, align 4, !tbaa !106
  tail call void @rb_ractor_sched_wakeup(ptr noundef nonnull %4) #19
  br label %ractor_take_will.exit

ractor_take_will.exit:                            ; preds = %34, %ractor_sleeping_by.exit.i, %27, %16, %14, %21, %11, %24
  %.0 = phi i32 [ 1, %24 ], [ 0, %11 ], [ 0, %21 ], [ 1, %14 ], [ 1, %16 ], [ 0, %27 ], [ 0, %ractor_sleeping_by.exit.i ], [ 0, %34 ]
  tail call void @rb_native_mutex_unlock(ptr noundef nonnull %8) #19
  br label %35

35:                                               ; preds = %3, %ractor_take_will.exit
  %.015 = phi i32 [ %.0, %ractor_take_will.exit ], [ 1, %3 ]
  ret i32 %.015
}